target datalayout = "e-m:e-p270:32:32-p271:32:32-p272:64:64-i64:64-i128:128-f80:128-n8:16:32:64-S128"
target triple = "x86_64-unknown-linux-gnu"

%"class.QuantLib::Period" = type { i32, i32 }
%"class.boost::detail::shared_count" = type { ptr }
%"class.std::set.0" = type { %"class.std::_Rb_tree.1" }
%"class.std::_Rb_tree.1" = type { %"struct.std::_Rb_tree<QuantLib::Observer *, QuantLib::Observer *, std::_Identity<QuantLib::Observer *>, std::less<QuantLib::Observer *>>::_Rb_tree_impl" }
%"struct.std::_Rb_tree<QuantLib::Observer *, QuantLib::Observer *, std::_Identity<QuantLib::Observer *>, std::less<QuantLib::Observer *>>::_Rb_tree_impl" = type { [8 x i8], %"struct.std::_Rb_tree_header" }
%"struct.std::_Rb_tree_header" = type { %"struct.std::_Rb_tree_node_base", i64 }
%"struct.std::_Rb_tree_node_base" = type { i32, ptr, ptr, ptr }
%"class.QuantLib::Date" = type { i64 }
%"class.std::set" = type { %"class.std::_Rb_tree" }
%"class.std::_Rb_tree" = type { %"struct.std::_Rb_tree<boost::shared_ptr<QuantLib::Observable>, boost::shared_ptr<QuantLib::Observable>, std::_Identity<boost::shared_ptr<QuantLib::Observable>>, std::less<boost::shared_ptr<QuantLib::Observable>>>::_Rb_tree_impl" }
%"struct.std::_Rb_tree<boost::shared_ptr<QuantLib::Observable>, boost::shared_ptr<QuantLib::Observable>, std::_Identity<boost::shared_ptr<QuantLib::Observable>>, std::less<boost::shared_ptr<QuantLib::Observable>>>::_Rb_tree_impl" = type { [8 x i8], %"struct.std::_Rb_tree_header" }
%"class.QuantLib::Observable" = type { ptr, %"class.std::set.0" }
%"class.std::__cxx11::basic_string" = type { %"struct.std::__cxx11::basic_string<char>::_Alloc_hider", i64, %union.anon }
%"struct.std::__cxx11::basic_string<char>::_Alloc_hider" = type { ptr }
%union.anon = type { i64, [8 x i8] }
%"class.QuantLib::InflationIndex" = type { %"class.QuantLib::Index", %"class.QuantLib::Date", %"class.std::__cxx11::basic_string", %"class.QuantLib::Region", i8, i32, %"class.QuantLib::Period", %"class.QuantLib::Currency", %"class.std::__cxx11::basic_string" }
%"class.QuantLib::Index" = type { %"class.QuantLib::Observable", %"class.QuantLib::Observer" }
%"class.QuantLib::Observer" = type { ptr, %"class.std::set" }
%"class.QuantLib::Region" = type { %"class.boost::shared_ptr.18" }
%"class.boost::shared_ptr.18" = type { ptr, %"class.boost::detail::shared_count" }
%"class.QuantLib::Currency" = type { %"class.boost::shared_ptr.19" }
%"class.boost::shared_ptr.19" = type { ptr, %"class.boost::detail::shared_count" }
%"class.boost::shared_ptr.20" = type { ptr, %"class.boost::detail::shared_count" }
%"class.QuantLib::YoYInflationIndex" = type { %"class.QuantLib::InflationIndex", i8, i8, %"class.boost::shared_ptr.20", %"class.QuantLib::Handle.41" }
%"class.QuantLib::Handle.41" = type { %"class.boost::shared_ptr.42" }
%"class.boost::shared_ptr.42" = type { ptr, %"class.boost::detail::shared_count" }
%"class.boost::shared_ptr.44" = type { ptr, %"class.boost::detail::shared_count" }

; Function Attrs: mustprogress uwtable
define void @_ZNK8QuantLib17YoYInflationIndex5cloneERKNS_6HandleINS_25YoYInflationTermStructureEEE(ptr dead_on_unwind noalias writable sret(%"class.boost::shared_ptr.44") align 8 %agg.result, ptr noundef nonnull align 8 dereferenceable(272) %this, ptr noundef nonnull align 8 dereferenceable(16) %h) #2 align 2 {
entry:
  %result.ptr = alloca ptr, align 8
  %this.addr = alloca ptr, align 8
  %h.addr = alloca ptr, align 8
  store ptr %agg.result, ptr %result.ptr, align 8
  store ptr %this, ptr %this.addr, align 8, !tbaa !3
  store ptr %h, ptr %h.addr, align 8, !tbaa !3
  %this1 = load ptr, ptr %this.addr, align 8
  %ratio_ = getelementptr inbounds nuw %"class.QuantLib::YoYInflationIndex", ptr %this1, i32 0, i32 2
  %0 = load i8, ptr %ratio_, align 1, !tbaa !85, !range !60, !noundef !61
  %loadedv = trunc i8 %0 to i1
  br i1 %loadedv, label %if.then, label %if.else

if.then:                                          ; preds = %entry
  %underlyingIndex_ = getelementptr inbounds nuw %"class.QuantLib::YoYInflationIndex", ptr %this1, i32 0, i32 3
  %interpolated_ = getelementptr inbounds nuw %"class.QuantLib::YoYInflationIndex", ptr %this1, i32 0, i32 1
  %1 = load ptr, ptr %h.addr, align 8, !tbaa !3
  call void @_ZN5boost11make_sharedIN8QuantLib17YoYInflationIndexEJRKNS_10shared_ptrINS1_18ZeroInflationIndexEEERKbRKNS1_6HandleINS1_25YoYInflationTermStructureEEEEEENS_6detail15sp_if_not_arrayIT_E4typeEDpOT0_(ptr dead_on_unwind writable sret(%"class.boost::shared_ptr.44") align 8 %agg.result, ptr noundef nonnull align 8 dereferenceable(16) %underlyingIndex_, ptr noundef nonnull align 1 dereferenceable(1) %interpolated_, ptr noundef nonnull align 8 dereferenceable(16) %1)
  br label %return

if.else:                                          ; preds = %entry
  %familyName_ = getelementptr inbounds nuw %"class.QuantLib::InflationIndex", ptr %this1, i32 0, i32 2
  %region_ = getelementptr inbounds nuw %"class.QuantLib::InflationIndex", ptr %this1, i32 0, i32 3
  %revised_ = getelementptr inbounds nuw %"class.QuantLib::InflationIndex", ptr %this1, i32 0, i32 4
  %interpolated_2 = getelementptr inbounds nuw %"class.QuantLib::YoYInflationIndex", ptr %this1, i32 0, i32 1
  %frequency_ = getelementptr inbounds nuw %"class.QuantLib::InflationIndex", ptr %this1, i32 0, i32 5
  %availabilityLag_ = getelementptr inbounds nuw %"class.QuantLib::InflationIndex", ptr %this1, i32 0, i32 6
  %currency_ = getelementptr inbounds nuw %"class.QuantLib::InflationIndex", ptr %this1, i32 0, i32 7
  %2 = load ptr, ptr %h.addr, align 8, !tbaa !3
  call void @_ZN5boost11make_sharedIN8QuantLib17YoYInflationIndexEJRKNSt7__cxx1112basic_stringIcSt11char_traitsIcESaIcEEERKNS1_6RegionERKbSF_RKNS1_9FrequencyERKNS1_6PeriodERKNS1_8CurrencyERKNS1_6HandleINS1_25YoYInflationTermStructureEEEEEENS_6detail15sp_if_not_arrayIT_E4typeEDpOT0_(ptr dead_on_unwind writable sret(%"class.boost::shared_ptr.44") align 8 %agg.result, ptr noundef nonnull align 8 dereferenceable(32) %familyName_, ptr noundef nonnull align 8 dereferenceable(16) %region_, ptr noundef nonnull align 1 dereferenceable(1) %revised_, ptr noundef nonnull align 1 dereferenceable(1) %interpolated_2, ptr noundef nonnull align 4 dereferenceable(4) %frequency_, ptr noundef nonnull align 4 dereferenceable(8) %availabilityLag_, ptr noundef nonnull align 8 dereferenceable(16) %currency_, ptr noundef nonnull align 8 dereferenceable(16) %2)
  br label %return

return:                                           ; preds = %if.else, %if.then
  ret void
}