; Function Attrs: mustprogress uwtable
define void @_ZNK8QuantLib17YoYInflationIndex5cloneERKNS_6HandleINS_25YoYInflationTermStructureEEE(ptr dead_on_unwind noalias writable sret(%"class.boost::shared_ptr.44") align 8 %agg.result, ptr noundef nonnull align 8 dereferenceable(272) %this, ptr noundef nonnull align 8 dereferenceable(16) %h) local_unnamed_addr #6 align 2 {
entry:
  %ratio_ = getelementptr inbounds nuw i8, ptr %this, i64 233
  %0 = load i8, ptr %ratio_, align 1, !tbaa !140, !range !26, !noundef !27
  %loadedv = trunc nuw i8 %0 to i1
  br i1 %loadedv, label %if.then, label %if.else

if.then:                                          ; preds = %entry
  %underlyingIndex_ = getelementptr inbounds nuw i8, ptr %this, i64 240
  %interpolated_ = getelementptr inbounds nuw i8, ptr %this, i64 232
  tail call void @_ZN5boost11make_sharedIN8QuantLib17YoYInflationIndexEJRKNS_10shared_ptrINS1_18ZeroInflationIndexEEERKbRKNS1_6HandleINS1_25YoYInflationTermStructureEEEEEENS_6detail15sp_if_not_arrayIT_E4typeEDpOT0_(ptr dead_on_unwind writable sret(%"class.boost::shared_ptr.44") align 8 %agg.result, ptr noundef nonnull align 8 dereferenceable(16) %underlyingIndex_, ptr noundef nonnull align 1 dereferenceable(1) %interpolated_, ptr noundef nonnull align 8 dereferenceable(16) %h)
  br label %return

if.else:                                          ; preds = %entry
  %familyName_ = getelementptr inbounds nuw i8, ptr %this, i64 120
  %region_ = getelementptr inbounds nuw i8, ptr %this, i64 152
  %revised_ = getelementptr inbounds nuw i8, ptr %this, i64 168
  %interpolated_2 = getelementptr inbounds nuw i8, ptr %this, i64 232
  %frequency_ = getelementptr inbounds nuw i8, ptr %this, i64 172
  %availabilityLag_ = getelementptr inbounds nuw i8, ptr %this, i64 176
  %currency_ = getelementptr inbounds nuw i8, ptr %this, i64 184
  tail call void @_ZN5boost11make_sharedIN8QuantLib17YoYInflationIndexEJRKNSt7__cxx1112basic_stringIcSt11char_traitsIcESaIcEEERKNS1_6RegionERKbSF_RKNS1_9FrequencyERKNS1_6PeriodERKNS1_8CurrencyERKNS1_6HandleINS1_25YoYInflationTermStructureEEEEEENS_6detail15sp_if_not_arrayIT_E4typeEDpOT0_(ptr dead_on_unwind writable sret(%"class.boost::shared_ptr.44") align 8 %agg.result, ptr noundef nonnull align 8 dereferenceable(32) %familyName_, ptr noundef nonnull align 8 dereferenceable(16) %region_, ptr noundef nonnull align 1 dereferenceable(1) %revised_, ptr noundef nonnull align 1 dereferenceable(1) %interpolated_2, ptr noundef nonnull align 4 dereferenceable(4) %frequency_, ptr noundef nonnull align 4 dereferenceable(8) %availabilityLag_, ptr noundef nonnull align 8 dereferenceable(16) %currency_, ptr noundef nonnull align 8 dereferenceable(16) %h)
  br label %return

return:                                           ; preds = %if.else, %if.then
  ret void
}